; Function Attrs: mustprogress nounwind uwtable
define dso_local noundef zeroext i1 @_ZN4llvm28mayContainIrreducibleControlERKNS_8FunctionEPKNS_8LoopInfoE(ptr noundef nonnull align 8 dereferenceable(136) %0, ptr noundef %1) local_unnamed_addr #1 {
  %3 = alloca %"class.llvm::ReversePostOrderTraversal", align 8
  %4 = alloca ptr, align 8
  %.not = icmp eq ptr %1, null
  br i1 %.not, label %_ZN4llvm25ReversePostOrderTraversalIPKNS_8FunctionENS_11GraphTraitsIS3_EEED2Ev.exit, label %5

5:                                                ; preds = %2
  store ptr %0, ptr %4, align 8
  %6 = getelementptr inbounds i8, ptr %3, i64 16
  call void @_ZN4llvm15SmallVectorBaseIjEC2EPvm(ptr noundef nonnull align 8 dereferenceable(16) %3, ptr noundef nonnull %6, i64 noundef 8) #19
  call void @_ZN4llvm25ReversePostOrderTraversalIPKNS_8FunctionENS_11GraphTraitsIS3_EEE10InitializeERKS3_(ptr noundef nonnull align 8 dereferenceable(80) %3, ptr noundef nonnull align 8 dereferenceable(8) %4)
  %7 = call noundef zeroext i1 @_ZN4llvm22containsIrreducibleCFGIPKNS_10BasicBlockEKNS_25ReversePostOrderTraversalIPKNS_8FunctionENS_11GraphTraitsIS7_EEEEKNS_8LoopInfoENS8_IS3_EEEEbRT0_RKT1_(ptr noundef nonnull align 8 dereferenceable(80) %3, ptr noundef nonnull align 8 dereferenceable(144) %1)
  %8 = call noundef i64 @_ZNK4llvm15SmallVectorBaseIjE4sizeEv(ptr noundef nonnull align 8 dereferenceable(16) %3) #19
  %9 = load ptr, ptr %3, align 8
  %10 = icmp eq ptr %9, %6
  br i1 %10, label %_ZN4llvm25ReversePostOrderTraversalIPKNS_8FunctionENS_11GraphTraitsIS3_EEED2Ev.exit, label %11

11:                                               ; preds = %5
  call void @free(ptr noundef %9) #19
  br label %_ZN4llvm25ReversePostOrderTraversalIPKNS_8FunctionENS_11GraphTraitsIS3_EEED2Ev.exit

_ZN4llvm25ReversePostOrderTraversalIPKNS_8FunctionENS_11GraphTraitsIS3_EEED2Ev.exit: ; preds = %11, %5, %2
  %.0 = phi i1 [ false, %2 ], [ %7, %5 ], [ %7, %11 ]
  ret i1 %.0
}